target datalayout = "e-m:e-p270:32:32-p271:32:32-p272:64:64-i64:64-i128:128-f80:128-n8:16:32:64-S128"
target triple = "x86_64-pc-linux-gnu"

%struct.pm_lex_mode = type { i32, %union.anon, ptr }
%union.anon = type { %struct.anon.3 }
%struct.anon.3 = type { %struct.pm_heredoc_lex_mode_t, ptr, ptr, i8 }
%struct.pm_heredoc_lex_mode_t = type { ptr, i64, i32, i32 }
%struct.pm_parser = type { i32, i32, i32, i32, i32, i32, i32, %struct.anon, ptr, ptr, %struct.pm_token_t, %struct.pm_token_t, ptr, ptr, %struct.pm_list_t, %struct.pm_list_t, %struct.pm_location_t, %struct.pm_list_t, %struct.pm_list_t, ptr, ptr, ptr, ptr, ptr, ptr, ptr, %struct.pm_string_t, %struct.pm_constant_pool_t, %struct.pm_newline_list_t, i16, %struct.pm_string_t, i32, ptr, ptr, i32, i8, i8, i8, i8, i8, i8, i8, i8, i8, i8, i8, i8, i8 }
%struct.anon = type { ptr, [4 x %struct.pm_lex_mode], i64 }
%struct.pm_token_t = type { i32, ptr, ptr }
%struct.pm_location_t = type { ptr, ptr }
%struct.pm_list_t = type { i64, ptr, ptr }
%struct.pm_constant_pool_t = type { ptr, ptr, i32, i32 }
%struct.pm_newline_list_t = type { ptr, i64, i64, ptr }
%struct.pm_string_t = type { ptr, i64, i32 }
%struct.pm_node = type { i16, i16, i32, %struct.pm_location_t }
%struct.pm_class_variable_read_node = type { %struct.pm_node, i32 }
%struct.pm_class_variable_operator_write_node = type { %struct.pm_node, i32, %struct.pm_location_t, %struct.pm_location_t, ptr, i32 }

@stderr = external global ptr, align 8
@.str.94 = private unnamed_addr constant [29 x i8] c"Failed to allocate %d bytes\0A\00", align 1

; Function Attrs: inlinehint nounwind sspstrong uwtable
define internal i32 @pm_parser_constant_id_location(ptr noundef %0, ptr noundef %1, ptr noundef %2) #7 {
  %4 = alloca ptr, align 8
  %5 = alloca ptr, align 8
  %6 = alloca ptr, align 8
  store ptr %0, ptr %4, align 8, !tbaa !7
  store ptr %1, ptr %5, align 8, !tbaa !12
  store ptr %2, ptr %6, align 8, !tbaa !12
  %7 = load ptr, ptr %4, align 8, !tbaa !7
  %8 = getelementptr inbounds nuw %struct.pm_parser, ptr %7, i32 0, i32 27
  %9 = load ptr, ptr %5, align 8, !tbaa !12
  %10 = load ptr, ptr %6, align 8, !tbaa !12
  %11 = load ptr, ptr %5, align 8, !tbaa !12
  %12 = ptrtoint ptr %10 to i64
  %13 = ptrtoint ptr %11 to i64
  %14 = sub i64 %12, %13
  %15 = call i32 @pm_constant_pool_insert_shared(ptr noundef %8, ptr noundef %9, i64 noundef %14)
  ret i32 %15
}

; Function Attrs: inlinehint nounwind sspstrong uwtable
define internal ptr @pm_node_alloc(ptr noundef %0, i64 noundef %1) #7 {
  %3 = alloca ptr, align 8
  %4 = alloca i64, align 8
  %5 = alloca ptr, align 8
  store ptr %0, ptr %3, align 8, !tbaa !7
  store i64 %1, ptr %4, align 8, !tbaa !14
  call void @llvm.lifetime.start.p0(i64 8, ptr %5) #15
  %6 = load i64, ptr %4, align 8, !tbaa !14
  %7 = call noalias ptr @calloc(i64 noundef 1, i64 noundef %6) #18
  store ptr %7, ptr %5, align 8, !tbaa !57
  %8 = load ptr, ptr %5, align 8, !tbaa !57
  %9 = icmp eq ptr %8, null
  br i1 %9, label %10, label %15

10:                                               ; preds = %2
  %11 = load ptr, ptr @stderr, align 8, !tbaa !452
  %12 = load i64, ptr %4, align 8, !tbaa !14
  %13 = trunc i64 %12 to i32
  %14 = call i32 (ptr, i32, ptr, ...) @__fprintf_chk(ptr noundef %11, i32 noundef 1, ptr noundef @.str.94, i32 noundef %13)
  call void @abort() #19
  unreachable

15:                                               ; preds = %2
  %16 = load ptr, ptr %5, align 8, !tbaa !57
  call void @llvm.lifetime.end.p0(i64 8, ptr %5) #15
  ret ptr %16
}

; Function Attrs: nounwind sspstrong uwtable
define internal ptr @pm_class_variable_operator_write_node_create(ptr noundef %0, ptr noundef %1, ptr noundef %2, ptr noundef %3) #0 {
  %5 = alloca ptr, align 8
  %6 = alloca ptr, align 8
  %7 = alloca ptr, align 8
  %8 = alloca ptr, align 8
  %9 = alloca ptr, align 8
  %10 = alloca %struct.pm_class_variable_operator_write_node, align 8
  store ptr %0, ptr %5, align 8, !tbaa !7
  store ptr %1, ptr %6, align 8, !tbaa !493
  store ptr %2, ptr %7, align 8, !tbaa !57
  store ptr %3, ptr %8, align 8, !tbaa !128
  call void @llvm.lifetime.start.p0(i64 8, ptr %9) #15
  %11 = load ptr, ptr %5, align 8, !tbaa !7
  %12 = call ptr @pm_node_alloc(ptr noundef %11, i64 noundef 80)
  store ptr %12, ptr %9, align 8, !tbaa !1126
  %13 = load ptr, ptr %9, align 8, !tbaa !1126
  %14 = getelementptr inbounds nuw %struct.pm_class_variable_operator_write_node, ptr %10, i32 0, i32 0
  %15 = getelementptr inbounds nuw %struct.pm_node, ptr %14, i32 0, i32 0
  store i16 28, ptr %15, align 8, !tbaa !206
  %16 = getelementptr inbounds nuw %struct.pm_node, ptr %14, i32 0, i32 1
  store i16 0, ptr %16, align 2, !tbaa !222
  %17 = getelementptr inbounds nuw %struct.pm_node, ptr %14, i32 0, i32 2
  %18 = load ptr, ptr %5, align 8, !tbaa !7
  %19 = getelementptr inbounds nuw %struct.pm_parser, ptr %18, i32 0, i32 0
  %20 = load i32, ptr %19, align 8, !tbaa !238
  %21 = add i32 %20, 1
  store i32 %21, ptr %19, align 8, !tbaa !238
  store i32 %21, ptr %17, align 4, !tbaa !239
  %22 = getelementptr inbounds nuw %struct.pm_node, ptr %14, i32 0, i32 3
  %23 = getelementptr inbounds nuw %struct.pm_location_t, ptr %22, i32 0, i32 0
  %24 = load ptr, ptr %6, align 8, !tbaa !493
  %25 = getelementptr inbounds nuw %struct.pm_class_variable_read_node, ptr %24, i32 0, i32 0
  %26 = getelementptr inbounds nuw %struct.pm_node, ptr %25, i32 0, i32 3
  %27 = getelementptr inbounds nuw %struct.pm_location_t, ptr %26, i32 0, i32 0
  %28 = load ptr, ptr %27, align 8, !tbaa !1028
  store ptr %28, ptr %23, align 8, !tbaa !152
  %29 = getelementptr inbounds nuw %struct.pm_location_t, ptr %22, i32 0, i32 1
  %30 = load ptr, ptr %8, align 8, !tbaa !128
  %31 = getelementptr inbounds nuw %struct.pm_node, ptr %30, i32 0, i32 3
  %32 = getelementptr inbounds nuw %struct.pm_location_t, ptr %31, i32 0, i32 1
  %33 = load ptr, ptr %32, align 8, !tbaa !224
  store ptr %33, ptr %29, align 8, !tbaa !153
  %34 = getelementptr inbounds nuw %struct.pm_class_variable_operator_write_node, ptr %10, i32 0, i32 1
  %35 = load ptr, ptr %6, align 8, !tbaa !493
  %36 = getelementptr inbounds nuw %struct.pm_class_variable_read_node, ptr %35, i32 0, i32 1
  %37 = load i32, ptr %36, align 8, !tbaa !495
  store i32 %37, ptr %34, align 8, !tbaa !1128
  %38 = getelementptr i8, ptr %10, i64 28
  call void @llvm.memset.p0.i64(ptr align 4 %38, i8 0, i64 4, i1 false)
  %39 = getelementptr inbounds nuw %struct.pm_class_variable_operator_write_node, ptr %10, i32 0, i32 2
  %40 = load ptr, ptr %6, align 8, !tbaa !493
  %41 = getelementptr inbounds nuw %struct.pm_class_variable_read_node, ptr %40, i32 0, i32 0
  %42 = getelementptr inbounds nuw %struct.pm_node, ptr %41, i32 0, i32 3
  call void @llvm.memcpy.p0.p0.i64(ptr align 8 %39, ptr align 8 %42, i64 16, i1 false), !tbaa.struct !241
  %43 = getelementptr inbounds nuw %struct.pm_class_variable_operator_write_node, ptr %10, i32 0, i32 3
  %44 = getelementptr inbounds nuw %struct.pm_location_t, ptr %43, i32 0, i32 0
  %45 = load ptr, ptr %7, align 8, !tbaa !57
  %46 = getelementptr inbounds nuw %struct.pm_token_t, ptr %45, i32 0, i32 1
  %47 = load ptr, ptr %46, align 8, !tbaa !43
  store ptr %47, ptr %44, align 8, !tbaa !152
  %48 = getelementptr inbounds nuw %struct.pm_location_t, ptr %43, i32 0, i32 1
  %49 = load ptr, ptr %7, align 8, !tbaa !57
  %50 = getelementptr inbounds nuw %struct.pm_token_t, ptr %49, i32 0, i32 2
  %51 = load ptr, ptr %50, align 8, !tbaa !44
  store ptr %51, ptr %48, align 8, !tbaa !153
  %52 = getelementptr inbounds nuw %struct.pm_class_variable_operator_write_node, ptr %10, i32 0, i32 4
  %53 = load ptr, ptr %8, align 8, !tbaa !128
  store ptr %53, ptr %52, align 8, !tbaa !1130
  %54 = getelementptr inbounds nuw %struct.pm_class_variable_operator_write_node, ptr %10, i32 0, i32 5
  %55 = load ptr, ptr %5, align 8, !tbaa !7
  %56 = load ptr, ptr %7, align 8, !tbaa !57
  %57 = getelementptr inbounds nuw %struct.pm_token_t, ptr %56, i32 0, i32 1
  %58 = load ptr, ptr %57, align 8, !tbaa !43
  %59 = load ptr, ptr %7, align 8, !tbaa !57
  %60 = getelementptr inbounds nuw %struct.pm_token_t, ptr %59, i32 0, i32 2
  %61 = load ptr, ptr %60, align 8, !tbaa !44
  %62 = getelementptr i8, ptr %61, i64 -1
  %63 = call i32 @pm_parser_constant_id_location(ptr noundef %55, ptr noundef %58, ptr noundef %62)
  store i32 %63, ptr %54, align 8, !tbaa !1131
  %64 = getelementptr i8, ptr %10, i64 76
  call void @llvm.memset.p0.i64(ptr align 4 %64, i8 0, i64 4, i1 false)
  call void @llvm.memcpy.p0.p0.i64(ptr align 8 %13, ptr align 8 %10, i64 80, i1 false), !tbaa.struct !1125
  %65 = load ptr, ptr %9, align 8, !tbaa !1126
  call void @llvm.lifetime.end.p0(i64 8, ptr %9) #15
  ret ptr %65
}