; Function Attrs: nounwind sspstrong uwtable
define internal fastcc noalias nonnull ptr @pm_class_variable_operator_write_node_create(ptr noundef %0, ptr noundef readonly captures(none) %1, ptr %.8.val, ptr %.16.val, ptr noundef %2) unnamed_addr #1 {
  %4 = tail call noalias dereferenceable_or_null(80) ptr @calloc(i64 noundef 1, i64 noundef 80) #34
  %5 = icmp eq ptr %4, null
  br i1 %5, label %6, label %pm_node_alloc.exit

6:                                                ; preds = %3
  %7 = load ptr, ptr @stderr, align 8, !tbaa !105
  %8 = tail call i32 (ptr, i32, ptr, ...) @__fprintf_chk(ptr noundef %7, i32 noundef 1, ptr noundef nonnull @.str.94, i32 noundef 80) #31
  tail call void @abort() #35
  unreachable

pm_node_alloc.exit:                               ; preds = %3
  %9 = load i32, ptr %0, align 8, !tbaa !107
  %10 = add i32 %9, 1
  store i32 %10, ptr %0, align 8, !tbaa !107
  %11 = getelementptr inbounds nuw i8, ptr %1, i64 8
  %12 = load ptr, ptr %11, align 8, !tbaa !659
  %13 = getelementptr inbounds nuw i8, ptr %2, i64 16
  %14 = load ptr, ptr %13, align 8, !tbaa !132
  %15 = getelementptr inbounds nuw i8, ptr %1, i64 24
  %16 = load i32, ptr %15, align 8, !tbaa !661
  %.sroa.8.0..sroa_idx = getelementptr inbounds nuw i8, ptr %4, i64 32
  tail call void @llvm.memcpy.p0.p0.i64(ptr noundef nonnull align 8 dereferenceable(16) %.sroa.8.0..sroa_idx, ptr noundef nonnull align 8 dereferenceable(16) %11, i64 16, i1 false)
  %17 = getelementptr i8, ptr %.16.val, i64 -1
  %18 = getelementptr inbounds nuw i8, ptr %0, i64 576
  %19 = ptrtoint ptr %17 to i64
  %20 = ptrtoint ptr %.8.val to i64
  %21 = sub i64 %19, %20
  %22 = tail call i32 @pm_constant_pool_insert_shared(ptr noundef nonnull %18, ptr noundef %.8.val, i64 noundef %21) #31
  store i16 28, ptr %4, align 8, !tbaa !108
  %.sroa.3.0..sroa_idx = getelementptr inbounds nuw i8, ptr %4, i64 4
  store i32 %10, ptr %.sroa.3.0..sroa_idx, align 4, !tbaa !7
  %.sroa.4.0..sroa_idx = getelementptr inbounds nuw i8, ptr %4, i64 8
  store ptr %12, ptr %.sroa.4.0..sroa_idx, align 8, !tbaa !14
  %.sroa.5.0..sroa_idx = getelementptr inbounds nuw i8, ptr %4, i64 16
  store ptr %14, ptr %.sroa.5.0..sroa_idx, align 8, !tbaa !14
  %.sroa.6.0..sroa_idx = getelementptr inbounds nuw i8, ptr %4, i64 24
  store i32 %16, ptr %.sroa.6.0..sroa_idx, align 8, !tbaa !7
  %.sroa.9.0..sroa_idx = getelementptr inbounds nuw i8, ptr %4, i64 48
  store ptr %.8.val, ptr %.sroa.9.0..sroa_idx, align 8, !tbaa !14
  %.sroa.10.0..sroa_idx = getelementptr inbounds nuw i8, ptr %4, i64 56
  store ptr %.16.val, ptr %.sroa.10.0..sroa_idx, align 8, !tbaa !14
  %.sroa.11.0..sroa_idx = getelementptr inbounds nuw i8, ptr %4, i64 64
  store ptr %2, ptr %.sroa.11.0..sroa_idx, align 8, !tbaa !103
  %.sroa.12.0..sroa_idx = getelementptr inbounds nuw i8, ptr %4, i64 72
  store i32 %22, ptr %.sroa.12.0..sroa_idx, align 8, !tbaa !7
  ret ptr %4
}